; Function Attrs: mustprogress uwtable
define internal void @_ZNK6google8protobuf8compiler3cpp12_GLOBAL__N_114SingularString25GenerateMemberConstructorEPNS0_2io7PrinterE(ptr nocapture noundef nonnull readonly align 8 dereferenceable(104) %this, ptr noundef %p) unnamed_addr #3 align 2 personality ptr @__gxx_personality_v0 {
entry:
  %is_inlined_.i = getelementptr inbounds i8, ptr %this, i64 72
  %0 = load i8, ptr %is_inlined_.i, align 8
  %1 = and i8 %0, 1
  %tobool.i.not = icmp eq i8 %1, 0
  br i1 %tobool.i.not, label %if.else, label %if.then

if.then:                                          ; preds = %entry
  tail call void @_ZN6google8protobuf2io7Printer4EmitEN4absl12lts_202308024SpanIKNS2_3SubEEESt17basic_string_viewIcSt11char_traitsIcEENS2_14SourceLocationE(ptr noundef nonnull align 8 dereferenceable(256) %p, ptr null, i64 0, i64 9, ptr nonnull @.str.107)
  br label %if.end12

if.else:                                          ; preds = %entry
  %2 = getelementptr inbounds i8, ptr %this, i64 88
  %this.val = load ptr, ptr %2, align 8
  %3 = getelementptr i8, ptr %this.val, i64 80
  %this.val.val = load ptr, ptr %3, align 8
  %call2.i = tail call noundef zeroext i1 @_ZNKSt7__cxx1112basic_stringIcSt11char_traitsIcESaIcEE5emptyEv(ptr noundef nonnull align 8 dereferenceable(32) %this.val.val) #27
  br i1 %call2.i, label %if.then4, label %if.else8

if.then4:                                         ; preds = %if.else
  tail call void @_ZN6google8protobuf2io7Printer4EmitEN4absl12lts_202308024SpanIKNS2_3SubEEESt17basic_string_viewIcSt11char_traitsIcEENS2_14SourceLocationE(ptr noundef nonnull align 8 dereferenceable(256) %p, ptr null, i64 0, i64 14, ptr nonnull @.str.108)
  br label %if.end12

if.else8:                                         ; preds = %if.else
  tail call void @_ZN6google8protobuf2io7Printer4EmitEN4absl12lts_202308024SpanIKNS2_3SubEEESt17basic_string_viewIcSt11char_traitsIcEENS2_14SourceLocationE(ptr noundef nonnull align 8 dereferenceable(256) %p, ptr null, i64 0, i64 40, ptr nonnull @.str.109)
  br label %if.end12

if.end12:                                         ; preds = %if.then4, %if.else8, %if.then
  ret void
}